; Function Attrs: nounwind uwtable
define internal void @blend_copybottom_16(ptr readnone captures(none) %0, i64 %1, ptr noundef %2, i64 noundef %3, ptr noundef %4, i64 noundef %5, i64 noundef %6, i64 noundef %7, ptr readnone captures(none) %8, ptr readnone captures(none) %9) #0 {
  %11 = trunc i64 %5 to i32
  %12 = trunc i64 %3 to i32
  %.tr = trunc i64 %6 to i32
  %13 = shl i32 %.tr, 1
  %14 = trunc i64 %7 to i32
  tail call void @av_image_copy_plane(ptr noundef %4, i32 noundef %11, ptr noundef %2, i32 noundef %12, i32 noundef %13, i32 noundef %14) #12
  ret void
}